; Function Attrs: mustprogress uwtable
define hidden noundef zeroext i1 @_ZN6google8protobuf25EncodedDescriptorDatabase23FindAllExtensionNumbersERKNSt7__cxx1112basic_stringIcSt11char_traitsIcESaIcEEEPSt6vectorIiSaIiEE(ptr noundef nonnull readonly align 8 captures(none) dereferenceable(40) %0, ptr noundef nonnull readonly align 8 captures(none) dereferenceable(32) %1, ptr noundef captures(none) %2) unnamed_addr #6 align 2 {
  %4 = getelementptr inbounds nuw i8, ptr %0, i64 8
  %5 = load ptr, ptr %4, align 8, !tbaa !81
  %6 = load ptr, ptr %1, align 8, !tbaa !25
  %7 = getelementptr inbounds nuw i8, ptr %1, i64 8
  %8 = load i64, ptr %7, align 8, !tbaa !29
  %9 = tail call noundef zeroext i1 @_ZN6google8protobuf25EncodedDescriptorDatabase15DescriptorIndex23FindAllExtensionNumbersENS0_20stringpiece_internal11StringPieceEPSt6vectorIiSaIiEE(ptr noundef nonnull align 8 dereferenceable(240) %5, ptr %6, i64 %8, ptr noundef %2)
  ret i1 %9
}